target datalayout = "e-m:e-p270:32:32-p271:32:32-p272:64:64-i64:64-i128:128-f80:128-n8:16:32:64-S128"
target triple = "x86_64-pc-linux-gnu"

; Function Attrs: nounwind uwtable
define void @swap_ij_case2(ptr noundef %0, i32 noundef %1, i32 noundef %2, i32 noundef %3) #0 {
  %5 = alloca ptr, align 8
  %6 = alloca i32, align 4
  %7 = alloca i32, align 4
  %8 = alloca i32, align 4
  %9 = alloca [6 x i64], align 16
  %10 = alloca i64, align 8
  %11 = alloca i32, align 4
  %12 = alloca i32, align 4
  %13 = alloca i32, align 4
  %14 = alloca i32, align 4
  %15 = alloca i32, align 4
  store ptr %0, ptr %5, align 8, !tbaa !3
  store i32 %1, ptr %6, align 4, !tbaa !8
  store i32 %2, ptr %7, align 4, !tbaa !8
  store i32 %3, ptr %8, align 4, !tbaa !8
  call void @llvm.lifetime.start.p0(i64 48, ptr %9) #6
  call void @llvm.memset.p0.i64(ptr align 16 %9, i8 0, i64 48, i1 false)
  %16 = getelementptr inbounds [6 x i64], ptr %9, i32 0, i32 0
  store i64 -6148914691236517206, ptr %16, align 16
  %17 = getelementptr inbounds [6 x i64], ptr %9, i32 0, i32 1
  store i64 -3689348814741910324, ptr %17, align 8
  %18 = getelementptr inbounds [6 x i64], ptr %9, i32 0, i32 2
  store i64 -1085102592571150096, ptr %18, align 16
  %19 = getelementptr inbounds [6 x i64], ptr %9, i32 0, i32 3
  store i64 -71777214294589696, ptr %19, align 8
  %20 = getelementptr inbounds [6 x i64], ptr %9, i32 0, i32 4
  store i64 -281470681808896, ptr %20, align 16
  %21 = getelementptr inbounds [6 x i64], ptr %9, i32 0, i32 5
  store i64 -4294967296, ptr %21, align 8
  call void @llvm.lifetime.start.p0(i64 8, ptr %10) #6
  call void @llvm.lifetime.start.p0(i64 4, ptr %11) #6
  call void @llvm.lifetime.start.p0(i64 4, ptr %12) #6
  call void @llvm.lifetime.start.p0(i64 4, ptr %13) #6
  call void @llvm.lifetime.start.p0(i64 4, ptr %14) #6
  %22 = load i32, ptr %6, align 4, !tbaa !8
  %23 = call i32 @Kit_TruthWordNum_64bit(i32 noundef %22)
  store i32 %23, ptr %14, align 4, !tbaa !8
  call void @llvm.lifetime.start.p0(i64 4, ptr %15) #6
  %24 = load i32, ptr %7, align 4, !tbaa !8
  %25 = shl i32 1, %24
  store i32 %25, ptr %15, align 4, !tbaa !8
  %26 = load i32, ptr %8, align 4, !tbaa !8
  %27 = sub nsw i32 %26, 6
  %28 = shl i32 1, %27
  store i32 %28, ptr %13, align 4, !tbaa !8
  store i32 0, ptr %11, align 4, !tbaa !8
  %29 = load i32, ptr %13, align 4, !tbaa !8
  store i32 %29, ptr %12, align 4, !tbaa !8
  %30 = load i32, ptr %13, align 4, !tbaa !8
  store i32 %30, ptr %12, align 4, !tbaa !8
  br label %31

31:                                               ; preds = %113, %4
  %32 = load i32, ptr %12, align 4, !tbaa !8
  %33 = load i32, ptr %14, align 4, !tbaa !8
  %34 = icmp slt i32 %32, %33
  br i1 %34, label %35, label %118

35:                                               ; preds = %31
  %36 = load i32, ptr %12, align 4, !tbaa !8
  %37 = load i32, ptr %13, align 4, !tbaa !8
  %38 = sub nsw i32 %36, %37
  store i32 %38, ptr %11, align 4, !tbaa !8
  br label %39

39:                                               ; preds = %109, %35
  %40 = load i32, ptr %11, align 4, !tbaa !8
  %41 = load i32, ptr %12, align 4, !tbaa !8
  %42 = icmp slt i32 %40, %41
  br i1 %42, label %43, label %112

43:                                               ; preds = %39
  %44 = load ptr, ptr %5, align 8, !tbaa !3
  %45 = load i32, ptr %11, align 4, !tbaa !8
  %46 = load i32, ptr %13, align 4, !tbaa !8
  %47 = add nsw i32 %45, %46
  %48 = sext i32 %47 to i64
  %49 = getelementptr inbounds i64, ptr %44, i64 %48
  %50 = load i64, ptr %49, align 8, !tbaa !10
  store i64 %50, ptr %10, align 8, !tbaa !10
  %51 = load ptr, ptr %5, align 8, !tbaa !3
  %52 = load i32, ptr %11, align 4, !tbaa !8
  %53 = load i32, ptr %13, align 4, !tbaa !8
  %54 = add nsw i32 %52, %53
  %55 = sext i32 %54 to i64
  %56 = getelementptr inbounds i64, ptr %51, i64 %55
  %57 = load i64, ptr %56, align 8, !tbaa !10
  %58 = load i32, ptr %7, align 4, !tbaa !8
  %59 = sext i32 %58 to i64
  %60 = getelementptr inbounds [6 x i64], ptr %9, i64 0, i64 %59
  %61 = load i64, ptr %60, align 8, !tbaa !10
  %62 = and i64 %57, %61
  %63 = load ptr, ptr %5, align 8, !tbaa !3
  %64 = load i32, ptr %11, align 4, !tbaa !8
  %65 = sext i32 %64 to i64
  %66 = getelementptr inbounds i64, ptr %63, i64 %65
  %67 = load i64, ptr %66, align 8, !tbaa !10
  %68 = load i32, ptr %7, align 4, !tbaa !8
  %69 = sext i32 %68 to i64
  %70 = getelementptr inbounds [6 x i64], ptr %9, i64 0, i64 %69
  %71 = load i64, ptr %70, align 8, !tbaa !10
  %72 = and i64 %67, %71
  %73 = load i32, ptr %15, align 4, !tbaa !8
  %74 = zext i32 %73 to i64
  %75 = lshr i64 %72, %74
  %76 = add i64 %62, %75
  %77 = load ptr, ptr %5, align 8, !tbaa !3
  %78 = load i32, ptr %11, align 4, !tbaa !8
  %79 = load i32, ptr %13, align 4, !tbaa !8
  %80 = add nsw i32 %78, %79
  %81 = sext i32 %80 to i64
  %82 = getelementptr inbounds i64, ptr %77, i64 %81
  store i64 %76, ptr %82, align 8, !tbaa !10
  %83 = load ptr, ptr %5, align 8, !tbaa !3
  %84 = load i32, ptr %11, align 4, !tbaa !8
  %85 = sext i32 %84 to i64
  %86 = getelementptr inbounds i64, ptr %83, i64 %85
  %87 = load i64, ptr %86, align 8, !tbaa !10
  %88 = load i32, ptr %7, align 4, !tbaa !8
  %89 = sext i32 %88 to i64
  %90 = getelementptr inbounds [6 x i64], ptr %9, i64 0, i64 %89
  %91 = load i64, ptr %90, align 8, !tbaa !10
  %92 = xor i64 %91, -1
  %93 = and i64 %87, %92
  %94 = load i64, ptr %10, align 8, !tbaa !10
  %95 = load i32, ptr %7, align 4, !tbaa !8
  %96 = sext i32 %95 to i64
  %97 = getelementptr inbounds [6 x i64], ptr %9, i64 0, i64 %96
  %98 = load i64, ptr %97, align 8, !tbaa !10
  %99 = xor i64 %98, -1
  %100 = and i64 %94, %99
  %101 = load i32, ptr %15, align 4, !tbaa !8
  %102 = zext i32 %101 to i64
  %103 = shl i64 %100, %102
  %104 = add i64 %93, %103
  %105 = load ptr, ptr %5, align 8, !tbaa !3
  %106 = load i32, ptr %11, align 4, !tbaa !8
  %107 = sext i32 %106 to i64
  %108 = getelementptr inbounds i64, ptr %105, i64 %107
  store i64 %104, ptr %108, align 8, !tbaa !10
  br label %109

109:                                              ; preds = %43
  %110 = load i32, ptr %11, align 4, !tbaa !8
  %111 = add nsw i32 %110, 1
  store i32 %111, ptr %11, align 4, !tbaa !8
  br label %39, !llvm.loop !14

112:                                              ; preds = %39
  br label %113

113:                                              ; preds = %112
  %114 = load i32, ptr %13, align 4, !tbaa !8
  %115 = mul nsw i32 2, %114
  %116 = load i32, ptr %12, align 4, !tbaa !8
  %117 = add nsw i32 %116, %115
  store i32 %117, ptr %12, align 4, !tbaa !8
  br label %31, !llvm.loop !15

118:                                              ; preds = %31
  call void @llvm.lifetime.end.p0(i64 4, ptr %15) #6
  call void @llvm.lifetime.end.p0(i64 4, ptr %14) #6
  call void @llvm.lifetime.end.p0(i64 4, ptr %13) #6
  call void @llvm.lifetime.end.p0(i64 4, ptr %12) #6
  call void @llvm.lifetime.end.p0(i64 4, ptr %11) #6
  call void @llvm.lifetime.end.p0(i64 8, ptr %10) #6
  call void @llvm.lifetime.end.p0(i64 48, ptr %9) #6
  ret void
}