; Function Attrs: nounwind uwtable
define void @swap_ij_case2(ptr noundef captures(none) %0, i32 noundef %1, i32 noundef %2, i32 noundef %3) local_unnamed_addr #0 {
  %5 = alloca [6 x i64], align 16
  call void @llvm.lifetime.start.p0(i64 48, ptr nonnull %5) #5
  store i64 -6148914691236517206, ptr %5, align 16
  %6 = getelementptr inbounds nuw i8, ptr %5, i64 8
  store i64 -3689348814741910324, ptr %6, align 8
  %7 = getelementptr inbounds nuw i8, ptr %5, i64 16
  store i64 -1085102592571150096, ptr %7, align 16
  %8 = getelementptr inbounds nuw i8, ptr %5, i64 24
  store i64 -71777214294589696, ptr %8, align 8
  %9 = getelementptr inbounds nuw i8, ptr %5, i64 32
  store i64 -281470681808896, ptr %9, align 16
  %10 = getelementptr inbounds nuw i8, ptr %5, i64 40
  store i64 -4294967296, ptr %10, align 8
  %11 = tail call i32 @Kit_TruthWordNum_64bit(i32 noundef %1) #5
  %12 = add nsw i32 %3, -6
  %13 = shl nuw i32 1, %12
  %14 = icmp slt i32 %13, %11
  br i1 %14, label %.lr.ph39, label %._crit_edge40

.lr.ph39:                                         ; preds = %4
  %15 = shl nuw i32 1, %2
  %16 = sext i32 %2 to i64
  %17 = getelementptr inbounds [6 x i64], ptr %5, i64 0, i64 %16
  %18 = zext i32 %15 to i64
  %19 = shl i32 2, %12
  %20 = sext i32 %13 to i64
  %21 = sext i32 %19 to i64
  %22 = sext i32 %11 to i64
  %.not = icmp eq i32 %12, 31
  %invariant.gep = getelementptr i64, ptr %0, i64 %20
  br label %23

23:                                               ; preds = %.lr.ph39, %._crit_edge
  %indvars.iv44 = phi i64 [ %20, %.lr.ph39 ], [ %indvars.iv.next45, %._crit_edge ]
  %indvars.iv = phi i32 [ 0, %.lr.ph39 ], [ %indvars.iv.next, %._crit_edge ]
  br i1 %.not, label %._crit_edge, label %.lr.ph

.lr.ph:                                           ; preds = %23
  %24 = sext i32 %indvars.iv to i64
  %25 = load i64, ptr %17, align 8, !tbaa !3
  %26 = xor i64 %25, -1
  br label %27

27:                                               ; preds = %.lr.ph, %27
  %indvars.iv41 = phi i64 [ %24, %.lr.ph ], [ %indvars.iv.next42, %27 ]
  %gep = getelementptr i64, ptr %invariant.gep, i64 %indvars.iv41
  %28 = load i64, ptr %gep, align 8, !tbaa !3
  %29 = and i64 %25, %28
  %30 = getelementptr inbounds i64, ptr %0, i64 %indvars.iv41
  %31 = load i64, ptr %30, align 8, !tbaa !3
  %32 = and i64 %31, %25
  %33 = lshr i64 %32, %18
  %34 = add i64 %33, %29
  store i64 %34, ptr %gep, align 8, !tbaa !3
  %35 = and i64 %31, %26
  %36 = and i64 %28, %26
  %37 = shl i64 %36, %18
  %38 = add i64 %35, %37
  store i64 %38, ptr %30, align 8, !tbaa !3
  %indvars.iv.next42 = add nsw i64 %indvars.iv41, 1
  %39 = icmp slt i64 %indvars.iv.next42, %indvars.iv44
  br i1 %39, label %27, label %._crit_edge, !llvm.loop !9

._crit_edge:                                      ; preds = %27, %23
  %indvars.iv.next45 = add nsw i64 %indvars.iv44, %21
  %40 = icmp slt i64 %indvars.iv.next45, %22
  %indvars.iv.next = add i32 %indvars.iv, %19
  br i1 %40, label %23, label %._crit_edge40, !llvm.loop !10

._crit_edge40:                                    ; preds = %._crit_edge, %4
  call void @llvm.lifetime.end.p0(i64 48, ptr nonnull %5) #5
  ret void
}